target datalayout = "e-m:e-p270:32:32-p271:32:32-p272:64:64-i64:64-i128:128-f80:128-n8:16:32:64-S128"
target triple = "x86_64-pc-linux-gnu"

%struct.easy_pollset = type { [5 x i32], i32, [5 x i8] }
%struct.Curl_waitfds = type { ptr, i32, i32 }
%struct.curl_waitfd = type { i32, i16, i16 }

; Function Attrs: nounwind uwtable
define internal i32 @cwfds_add_sock(ptr noundef %0, i32 noundef %1, i16 noundef signext %2) #0 {
  %4 = alloca i32, align 4
  %5 = alloca ptr, align 8
  %6 = alloca i32, align 4
  %7 = alloca i16, align 2
  %8 = alloca i32, align 4
  %9 = alloca i32, align 4
  store ptr %0, ptr %5, align 8, !tbaa !39
  store i32 %1, ptr %6, align 4, !tbaa !7
  store i16 %2, ptr %7, align 2, !tbaa !30
  call void @llvm.lifetime.start.p0(i64 4, ptr %8) #6
  %10 = load ptr, ptr %5, align 8, !tbaa !39
  %11 = getelementptr inbounds nuw %struct.Curl_waitfds, ptr %10, i32 0, i32 0
  %12 = load ptr, ptr %11, align 8, !tbaa !43
  %13 = icmp ne ptr %12, null
  br i1 %13, label %18, label %14

14:                                               ; preds = %3
  br label %15

15:                                               ; preds = %14
  br label %16

16:                                               ; preds = %15
  br label %17

17:                                               ; preds = %16
  store i32 1, ptr %4, align 4
  store i32 1, ptr %9, align 4
  br label %95

18:                                               ; preds = %3
  %19 = load ptr, ptr %5, align 8, !tbaa !39
  %20 = getelementptr inbounds nuw %struct.Curl_waitfds, ptr %19, i32 0, i32 1
  %21 = load i32, ptr %20, align 8, !tbaa !47
  %22 = icmp ule i32 %21, 2147483647
  br i1 %22, label %23, label %61

23:                                               ; preds = %18
  %24 = load ptr, ptr %5, align 8, !tbaa !39
  %25 = getelementptr inbounds nuw %struct.Curl_waitfds, ptr %24, i32 0, i32 1
  %26 = load i32, ptr %25, align 8, !tbaa !47
  %27 = sub nsw i32 %26, 1
  store i32 %27, ptr %8, align 4, !tbaa !7
  br label %28

28:                                               ; preds = %57, %23
  %29 = load i32, ptr %8, align 4, !tbaa !7
  %30 = icmp sge i32 %29, 0
  br i1 %30, label %31, label %60

31:                                               ; preds = %28
  %32 = load i32, ptr %6, align 4, !tbaa !7
  %33 = load ptr, ptr %5, align 8, !tbaa !39
  %34 = getelementptr inbounds nuw %struct.Curl_waitfds, ptr %33, i32 0, i32 0
  %35 = load ptr, ptr %34, align 8, !tbaa !43
  %36 = load i32, ptr %8, align 4, !tbaa !7
  %37 = sext i32 %36 to i64
  %38 = getelementptr inbounds %struct.curl_waitfd, ptr %35, i64 %37
  %39 = getelementptr inbounds nuw %struct.curl_waitfd, ptr %38, i32 0, i32 0
  %40 = load i32, ptr %39, align 4, !tbaa !48
  %41 = icmp eq i32 %32, %40
  br i1 %41, label %42, label %56

42:                                               ; preds = %31
  %43 = load i16, ptr %7, align 2, !tbaa !30
  %44 = sext i16 %43 to i32
  %45 = load ptr, ptr %5, align 8, !tbaa !39
  %46 = getelementptr inbounds nuw %struct.Curl_waitfds, ptr %45, i32 0, i32 0
  %47 = load ptr, ptr %46, align 8, !tbaa !43
  %48 = load i32, ptr %8, align 4, !tbaa !7
  %49 = sext i32 %48 to i64
  %50 = getelementptr inbounds %struct.curl_waitfd, ptr %47, i64 %49
  %51 = getelementptr inbounds nuw %struct.curl_waitfd, ptr %50, i32 0, i32 1
  %52 = load i16, ptr %51, align 4, !tbaa !50
  %53 = sext i16 %52 to i32
  %54 = or i32 %53, %44
  %55 = trunc i32 %54 to i16
  store i16 %55, ptr %51, align 4, !tbaa !50
  store i32 0, ptr %4, align 4
  store i32 1, ptr %9, align 4
  br label %95

56:                                               ; preds = %31
  br label %57

57:                                               ; preds = %56
  %58 = load i32, ptr %8, align 4, !tbaa !7
  %59 = add nsw i32 %58, -1
  store i32 %59, ptr %8, align 4, !tbaa !7
  br label %28, !llvm.loop !51

60:                                               ; preds = %28
  br label %61

61:                                               ; preds = %60, %18
  %62 = load ptr, ptr %5, align 8, !tbaa !39
  %63 = getelementptr inbounds nuw %struct.Curl_waitfds, ptr %62, i32 0, i32 1
  %64 = load i32, ptr %63, align 8, !tbaa !47
  %65 = load ptr, ptr %5, align 8, !tbaa !39
  %66 = getelementptr inbounds nuw %struct.Curl_waitfds, ptr %65, i32 0, i32 2
  %67 = load i32, ptr %66, align 4, !tbaa !45
  %68 = icmp ult i32 %64, %67
  br i1 %68, label %69, label %94

69:                                               ; preds = %61
  %70 = load i32, ptr %6, align 4, !tbaa !7
  %71 = load ptr, ptr %5, align 8, !tbaa !39
  %72 = getelementptr inbounds nuw %struct.Curl_waitfds, ptr %71, i32 0, i32 0
  %73 = load ptr, ptr %72, align 8, !tbaa !43
  %74 = load ptr, ptr %5, align 8, !tbaa !39
  %75 = getelementptr inbounds nuw %struct.Curl_waitfds, ptr %74, i32 0, i32 1
  %76 = load i32, ptr %75, align 8, !tbaa !47
  %77 = zext i32 %76 to i64
  %78 = getelementptr inbounds nuw %struct.curl_waitfd, ptr %73, i64 %77
  %79 = getelementptr inbounds nuw %struct.curl_waitfd, ptr %78, i32 0, i32 0
  store i32 %70, ptr %79, align 4, !tbaa !48
  %80 = load i16, ptr %7, align 2, !tbaa !30
  %81 = load ptr, ptr %5, align 8, !tbaa !39
  %82 = getelementptr inbounds nuw %struct.Curl_waitfds, ptr %81, i32 0, i32 0
  %83 = load ptr, ptr %82, align 8, !tbaa !43
  %84 = load ptr, ptr %5, align 8, !tbaa !39
  %85 = getelementptr inbounds nuw %struct.Curl_waitfds, ptr %84, i32 0, i32 1
  %86 = load i32, ptr %85, align 8, !tbaa !47
  %87 = zext i32 %86 to i64
  %88 = getelementptr inbounds nuw %struct.curl_waitfd, ptr %83, i64 %87
  %89 = getelementptr inbounds nuw %struct.curl_waitfd, ptr %88, i32 0, i32 1
  store i16 %80, ptr %89, align 4, !tbaa !50
  %90 = load ptr, ptr %5, align 8, !tbaa !39
  %91 = getelementptr inbounds nuw %struct.Curl_waitfds, ptr %90, i32 0, i32 1
  %92 = load i32, ptr %91, align 8, !tbaa !47
  %93 = add i32 %92, 1
  store i32 %93, ptr %91, align 8, !tbaa !47
  br label %94

94:                                               ; preds = %69, %61
  store i32 1, ptr %4, align 4
  store i32 1, ptr %9, align 4
  br label %95

95:                                               ; preds = %94, %42, %17
  call void @llvm.lifetime.end.p0(i64 4, ptr %8) #6
  %96 = load i32, ptr %4, align 4
  ret i32 %96
}

; Function Attrs: nounwind uwtable
define hidden i32 @Curl_waitfds_add_ps(ptr noundef %0, ptr noundef %1) #0 {
  %3 = alloca ptr, align 8
  %4 = alloca ptr, align 8
  %5 = alloca i64, align 8
  %6 = alloca i32, align 4
  %7 = alloca i16, align 2
  store ptr %0, ptr %3, align 8, !tbaa !39
  store ptr %1, ptr %4, align 8, !tbaa !33
  call void @llvm.lifetime.start.p0(i64 8, ptr %5) #6
  call void @llvm.lifetime.start.p0(i64 4, ptr %6) #6
  store i32 0, ptr %6, align 4, !tbaa !7
  br label %8

8:                                                ; preds = %2
  br label %9

9:                                                ; preds = %8
  br label %10

10:                                               ; preds = %9
  br label %11

11:                                               ; preds = %10
  br label %12

12:                                               ; preds = %11
  br label %13

13:                                               ; preds = %12
  store i64 0, ptr %5, align 8, !tbaa !3
  br label %14

14:                                               ; preds = %64, %13
  %15 = load i64, ptr %5, align 8, !tbaa !3
  %16 = load ptr, ptr %4, align 8, !tbaa !33
  %17 = getelementptr inbounds nuw %struct.easy_pollset, ptr %16, i32 0, i32 1
  %18 = load i32, ptr %17, align 4, !tbaa !35
  %19 = zext i32 %18 to i64
  %20 = icmp ult i64 %15, %19
  br i1 %20, label %21, label %67

21:                                               ; preds = %14
  call void @llvm.lifetime.start.p0(i64 2, ptr %7) #6
  store i16 0, ptr %7, align 2, !tbaa !30
  %22 = load ptr, ptr %4, align 8, !tbaa !33
  %23 = getelementptr inbounds nuw %struct.easy_pollset, ptr %22, i32 0, i32 2
  %24 = load i64, ptr %5, align 8, !tbaa !3
  %25 = getelementptr inbounds nuw [5 x i8], ptr %23, i64 0, i64 %24
  %26 = load i8, ptr %25, align 1, !tbaa !37
  %27 = zext i8 %26 to i32
  %28 = and i32 %27, 1
  %29 = icmp ne i32 %28, 0
  br i1 %29, label %30, label %35

30:                                               ; preds = %21
  %31 = load i16, ptr %7, align 2, !tbaa !30
  %32 = sext i16 %31 to i32
  %33 = or i32 %32, 1
  %34 = trunc i32 %33 to i16
  store i16 %34, ptr %7, align 2, !tbaa !30
  br label %35

35:                                               ; preds = %30, %21
  %36 = load ptr, ptr %4, align 8, !tbaa !33
  %37 = getelementptr inbounds nuw %struct.easy_pollset, ptr %36, i32 0, i32 2
  %38 = load i64, ptr %5, align 8, !tbaa !3
  %39 = getelementptr inbounds nuw [5 x i8], ptr %37, i64 0, i64 %38
  %40 = load i8, ptr %39, align 1, !tbaa !37
  %41 = zext i8 %40 to i32
  %42 = and i32 %41, 2
  %43 = icmp ne i32 %42, 0
  br i1 %43, label %44, label %49

44:                                               ; preds = %35
  %45 = load i16, ptr %7, align 2, !tbaa !30
  %46 = sext i16 %45 to i32
  %47 = or i32 %46, 4
  %48 = trunc i32 %47 to i16
  store i16 %48, ptr %7, align 2, !tbaa !30
  br label %49

49:                                               ; preds = %44, %35
  %50 = load i16, ptr %7, align 2, !tbaa !30
  %51 = icmp ne i16 %50, 0
  br i1 %51, label %52, label %63

52:                                               ; preds = %49
  %53 = load ptr, ptr %3, align 8, !tbaa !39
  %54 = load ptr, ptr %4, align 8, !tbaa !33
  %55 = getelementptr inbounds nuw %struct.easy_pollset, ptr %54, i32 0, i32 0
  %56 = load i64, ptr %5, align 8, !tbaa !3
  %57 = getelementptr inbounds nuw [5 x i32], ptr %55, i64 0, i64 %56
  %58 = load i32, ptr %57, align 4, !tbaa !7
  %59 = load i16, ptr %7, align 2, !tbaa !30
  %60 = call i32 @cwfds_add_sock(ptr noundef %53, i32 noundef %58, i16 noundef signext %59)
  %61 = load i32, ptr %6, align 4, !tbaa !7
  %62 = add i32 %61, %60
  store i32 %62, ptr %6, align 4, !tbaa !7
  br label %63

63:                                               ; preds = %52, %49
  call void @llvm.lifetime.end.p0(i64 2, ptr %7) #6
  br label %64

64:                                               ; preds = %63
  %65 = load i64, ptr %5, align 8, !tbaa !3
  %66 = add i64 %65, 1
  store i64 %66, ptr %5, align 8, !tbaa !3
  br label %14, !llvm.loop !46

67:                                               ; preds = %14
  %68 = load i32, ptr %6, align 4, !tbaa !7
  call void @llvm.lifetime.end.p0(i64 4, ptr %6) #6
  call void @llvm.lifetime.end.p0(i64 8, ptr %5) #6
  ret i32 %68
}