; Function Attrs: nofree norecurse nosync nounwind memory(readwrite, inaccessiblemem: none) uwtable
define hidden i32 @Curl_waitfds_add_ps(ptr noundef captures(none) %0, ptr noundef readonly captures(none) %1) local_unnamed_addr #6 {
  %3 = getelementptr inbounds nuw i8, ptr %1, i64 20
  %4 = load i32, ptr %3, align 4, !tbaa !22
  %5 = zext i32 %4 to i64
  %.not = icmp eq i32 %4, 0
  br i1 %.not, label %._crit_edge, label %.lr.ph

.lr.ph:                                           ; preds = %2
  %6 = getelementptr inbounds nuw i8, ptr %1, i64 24
  %7 = getelementptr inbounds nuw i8, ptr %0, i64 8
  %8 = getelementptr inbounds nuw i8, ptr %0, i64 12
  br label %9

9:                                                ; preds = %.lr.ph, %40
  %.01522 = phi i32 [ 0, %.lr.ph ], [ %.116, %40 ]
  %.01721 = phi i64 [ 0, %.lr.ph ], [ %41, %40 ]
  %10 = getelementptr inbounds nuw [5 x i8], ptr %6, i64 0, i64 %.01721
  %11 = load i8, ptr %10, align 1, !tbaa !24
  %12 = and i8 %11, 1
  %13 = shl i8 %11, 1
  %14 = and i8 %13, 4
  %.120 = or disjoint i8 %14, %12
  %.1 = zext nneg i8 %.120 to i16
  %.not19 = icmp eq i8 %.120, 0
  br i1 %.not19, label %40, label %15

15:                                               ; preds = %9
  %16 = getelementptr inbounds nuw [5 x i32], ptr %1, i64 0, i64 %.01721
  %17 = load i32, ptr %16, align 4, !tbaa !3
  %18 = load ptr, ptr %0, align 8, !tbaa !27
  %.not.i = icmp eq ptr %18, null
  br i1 %.not.i, label %cwfds_add_sock.exit, label %19

19:                                               ; preds = %15
  %20 = load i32, ptr %7, align 8, !tbaa !31
  %21 = icmp sgt i32 %20, -1
  br i1 %21, label %.preheader.preheader.i, label %.loopexit.i

.preheader.preheader.i:                           ; preds = %19
  %22 = zext nneg i32 %20 to i64
  br label %.preheader.i

.preheader.i:                                     ; preds = %24, %.preheader.preheader.i
  %indvars.iv.i = phi i64 [ %22, %.preheader.preheader.i ], [ %indvars.iv.next.i, %24 ]
  %23 = icmp sgt i64 %indvars.iv.i, 0
  br i1 %23, label %24, label %.loopexit.i

24:                                               ; preds = %.preheader.i
  %indvars.iv.next.i = add nsw i64 %indvars.iv.i, -1
  %25 = getelementptr inbounds nuw %struct.curl_waitfd, ptr %18, i64 %indvars.iv.next.i
  %26 = load i32, ptr %25, align 4, !tbaa !32
  %27 = icmp eq i32 %17, %26
  br i1 %27, label %28, label %.preheader.i, !llvm.loop !34

28:                                               ; preds = %24
  %29 = getelementptr inbounds nuw %struct.curl_waitfd, ptr %18, i64 %indvars.iv.next.i, i32 1
  %30 = load i16, ptr %29, align 4, !tbaa !35
  %31 = or i16 %30, %.1
  store i16 %31, ptr %29, align 4, !tbaa !35
  br label %cwfds_add_sock.exit

.loopexit.i:                                      ; preds = %.preheader.i, %19
  %32 = load i32, ptr %8, align 4, !tbaa !30
  %33 = icmp ult i32 %20, %32
  br i1 %33, label %34, label %cwfds_add_sock.exit

34:                                               ; preds = %.loopexit.i
  %35 = zext i32 %20 to i64
  %36 = getelementptr inbounds nuw %struct.curl_waitfd, ptr %18, i64 %35
  store i32 %17, ptr %36, align 4, !tbaa !32
  %37 = getelementptr inbounds nuw %struct.curl_waitfd, ptr %18, i64 %35, i32 1
  store i16 %.1, ptr %37, align 4, !tbaa !35
  %38 = add nuw i32 %20, 1
  store i32 %38, ptr %7, align 8, !tbaa !31
  br label %cwfds_add_sock.exit

cwfds_add_sock.exit:                              ; preds = %15, %28, %.loopexit.i, %34
  %.020.i = phi i32 [ 0, %28 ], [ 1, %15 ], [ 1, %34 ], [ 1, %.loopexit.i ]
  %39 = add i32 %.020.i, %.01522
  br label %40

40:                                               ; preds = %cwfds_add_sock.exit, %9
  %.116 = phi i32 [ %39, %cwfds_add_sock.exit ], [ %.01522, %9 ]
  %41 = add nuw nsw i64 %.01721, 1
  %exitcond.not = icmp eq i64 %41, %5
  br i1 %exitcond.not, label %._crit_edge, label %9, !llvm.loop !36

._crit_edge:                                      ; preds = %40, %2
  %.015.lcssa = phi i32 [ 0, %2 ], [ %.116, %40 ]
  ret i32 %.015.lcssa
}